target datalayout = "e-m:e-p270:32:32-p271:32:32-p272:64:64-i64:64-i128:128-f80:128-n8:16:32:64-S128"
target triple = "x86_64-pc-linux-gnu"

%struct._packet_info = type { ptr, ptr, i32, i32, %struct.nstime_t, %struct.nstime_t, %struct.nstime_t, i8, ptr, ptr, ptr, ptr, %struct._address, %struct._address, %struct._address, %struct._address, %struct._address, %struct._address, i32, ptr, i8, [3 x i8], %struct.anon, i32, i32, i32, i32, ptr, i8, ptr, ptr, i16, i16, i32, i32, i16, i32, i32, ptr, ptr, ptr, i8, i8, i16, i16, i16, i32, i16, i16, ptr, ptr, ptr, ptr, ptr, i32, i32 }
%struct.nstime_t = type { i64, i32 }
%struct._address = type { i32, i32, ptr, ptr }
%struct.anon = type { i8, [3 x i8] }

@.str.5 = private unnamed_addr constant [42 x i8] c"clear text (1), password (length %d) = %s\00", align 1
@.str.6 = private unnamed_addr constant [48 x i8] c"clear text (1), no clear-text password found!!!\00", align 1
@.str.7 = private unnamed_addr constant [47 x i8] c"hmac-md5 (54), message digest (length %d) = %s\00", align 1
@.str.8 = private unnamed_addr constant [65 x i8] c"hmac-md5 (54), illegal hmac-md5 digest format (must be 16 bytes)\00", align 1
@.str.9 = private unnamed_addr constant [52 x i8] c"CRYPTO_AUTH %s (3), message digest (length %d) = %s\00", align 1
@.str.10 = private unnamed_addr constant [46 x i8] c"CRYPTO_AUTH (3) illegal message digest format\00", align 1
@.str.11 = private unnamed_addr constant [21 x i8] c"type 0x%02x (0x%02x)\00", align 1

; Function Attrs: null_pointer_is_valid sspstrong uwtable
define hidden void @isis_dissect_authentication_clv(ptr noundef %0, ptr noundef %1, ptr noundef %2, i32 noundef %3, i32 noundef %4, ptr noundef %5, i32 noundef %6, i32 noundef %7) #0 {
  %9 = alloca ptr, align 8
  %10 = alloca ptr, align 8
  %11 = alloca ptr, align 8
  %12 = alloca i32, align 4
  %13 = alloca i32, align 4
  %14 = alloca ptr, align 8
  %15 = alloca i32, align 4
  %16 = alloca i32, align 4
  %17 = alloca i8, align 1
  %18 = alloca i32, align 4
  %19 = alloca ptr, align 8
  %20 = alloca i32, align 4
  store ptr %0, ptr %9, align 8
  store ptr %1, ptr %10, align 8
  store ptr %2, ptr %11, align 8
  store i32 %3, ptr %12, align 4
  store i32 %4, ptr %13, align 4
  store ptr %5, ptr %14, align 8
  store i32 %6, ptr %15, align 4
  store i32 %7, ptr %16, align 4
  call void @llvm.lifetime.start.p0(i64 1, ptr %17) #3
  call void @llvm.lifetime.start.p0(i64 4, ptr %18) #3
  call void @llvm.lifetime.start.p0(i64 8, ptr %19) #3
  store ptr null, ptr %19, align 8
  %21 = load i32, ptr %16, align 4
  %22 = icmp sle i32 %21, 0
  br i1 %22, label %23, label %24

23:                                               ; preds = %8
  store i32 1, ptr %20, align 4
  br label %145

24:                                               ; preds = %8
  %25 = load ptr, ptr %11, align 8
  %26 = load i32, ptr %15, align 4
  %27 = call zeroext i8 @tvb_get_uint8(ptr noundef %25, i32 noundef %26)
  store i8 %27, ptr %17, align 1
  %28 = load i32, ptr %15, align 4
  %29 = add i32 %28, 1
  store i32 %29, ptr %15, align 4
  %30 = load i32, ptr %16, align 4
  %31 = add i32 %30, -1
  store i32 %31, ptr %16, align 4
  store i32 0, ptr %18, align 4
  %32 = load i8, ptr %17, align 1
  %33 = zext i8 %32 to i32
  switch i32 %33, label %124 [
    i32 1, label %34
    i32 54, label %60
    i32 3, label %86
  ]

34:                                               ; preds = %24
  %35 = load i32, ptr %16, align 4
  %36 = icmp sgt i32 %35, 0
  br i1 %36, label %37, label %52

37:                                               ; preds = %34
  %38 = load ptr, ptr %9, align 8
  %39 = load i32, ptr %12, align 4
  %40 = load ptr, ptr %11, align 8
  %41 = load i32, ptr %15, align 4
  %42 = load i32, ptr %16, align 4
  %43 = load i32, ptr %16, align 4
  %44 = load ptr, ptr %10, align 8
  %45 = getelementptr inbounds nuw %struct._packet_info, ptr %44, i32 0, i32 51
  %46 = load ptr, ptr %45, align 8
  %47 = load ptr, ptr %11, align 8
  %48 = load i32, ptr %15, align 4
  %49 = load i32, ptr %16, align 4
  %50 = call ptr @tvb_format_text(ptr noundef %46, ptr noundef %47, i32 noundef %48, i32 noundef %49)
  %51 = call ptr (ptr, i32, ptr, i32, i32, ptr, ptr, ...) @proto_tree_add_bytes_format(ptr noundef %38, i32 noundef %39, ptr noundef %40, i32 noundef %41, i32 noundef %42, ptr noundef null, ptr noundef @.str.5, i32 noundef %43, ptr noundef %50)
  br label %59

52:                                               ; preds = %34
  %53 = load ptr, ptr %9, align 8
  %54 = load i32, ptr %12, align 4
  %55 = load ptr, ptr %11, align 8
  %56 = load i32, ptr %15, align 4
  %57 = load i32, ptr %16, align 4
  %58 = call ptr (ptr, i32, ptr, i32, i32, ptr, ptr, ...) @proto_tree_add_bytes_format(ptr noundef %53, i32 noundef %54, ptr noundef %55, i32 noundef %56, i32 noundef %57, ptr noundef null, ptr noundef @.str.6)
  br label %59

59:                                               ; preds = %52, %37
  br label %134

60:                                               ; preds = %24
  %61 = load i32, ptr %16, align 4
  %62 = icmp eq i32 %61, 16
  br i1 %62, label %63, label %78

63:                                               ; preds = %60
  %64 = load ptr, ptr %9, align 8
  %65 = load i32, ptr %12, align 4
  %66 = load ptr, ptr %11, align 8
  %67 = load i32, ptr %15, align 4
  %68 = load i32, ptr %16, align 4
  %69 = load i32, ptr %16, align 4
  %70 = load ptr, ptr %10, align 8
  %71 = getelementptr inbounds nuw %struct._packet_info, ptr %70, i32 0, i32 51
  %72 = load ptr, ptr %71, align 8
  %73 = load ptr, ptr %11, align 8
  %74 = load i32, ptr %15, align 4
  %75 = load i32, ptr %16, align 4
  %76 = call ptr @tvb_bytes_to_str(ptr noundef %72, ptr noundef %73, i32 noundef %74, i32 noundef %75)
  %77 = call ptr (ptr, i32, ptr, i32, i32, ptr, ptr, ...) @proto_tree_add_bytes_format(ptr noundef %64, i32 noundef %65, ptr noundef %66, i32 noundef %67, i32 noundef %68, ptr noundef null, ptr noundef @.str.7, i32 noundef %69, ptr noundef %76)
  br label %85

78:                                               ; preds = %60
  %79 = load ptr, ptr %9, align 8
  %80 = load i32, ptr %12, align 4
  %81 = load ptr, ptr %11, align 8
  %82 = load i32, ptr %15, align 4
  %83 = load i32, ptr %16, align 4
  %84 = call ptr (ptr, i32, ptr, i32, i32, ptr, ptr, ...) @proto_tree_add_bytes_format(ptr noundef %79, i32 noundef %80, ptr noundef %81, i32 noundef %82, i32 noundef %83, ptr noundef null, ptr noundef @.str.8)
  br label %85

85:                                               ; preds = %78, %63
  br label %134

86:                                               ; preds = %24
  %87 = load ptr, ptr %9, align 8
  %88 = load i32, ptr %13, align 4
  %89 = load ptr, ptr %11, align 8
  %90 = load i32, ptr %15, align 4
  %91 = call ptr @proto_tree_add_item(ptr noundef %87, i32 noundef %88, ptr noundef %89, i32 noundef %90, i32 noundef 2, i32 noundef 0)
  %92 = load i32, ptr %15, align 4
  %93 = add i32 %92, 2
  store i32 %93, ptr %15, align 4
  %94 = load i32, ptr %16, align 4
  %95 = sub i32 %94, 2
  store i32 %95, ptr %16, align 4
  %96 = load i32, ptr %16, align 4
  %97 = call ptr @try_val_to_str(i32 noundef %96, ptr noundef @algorithm_vals)
  store ptr %97, ptr %19, align 8
  %98 = load ptr, ptr %19, align 8
  %99 = icmp ne ptr %98, null
  br i1 %99, label %100, label %116

100:                                              ; preds = %86
  %101 = load ptr, ptr %9, align 8
  %102 = load i32, ptr %12, align 4
  %103 = load ptr, ptr %11, align 8
  %104 = load i32, ptr %15, align 4
  %105 = load i32, ptr %16, align 4
  %106 = load ptr, ptr %19, align 8
  %107 = load i32, ptr %16, align 4
  %108 = load ptr, ptr %10, align 8
  %109 = getelementptr inbounds nuw %struct._packet_info, ptr %108, i32 0, i32 51
  %110 = load ptr, ptr %109, align 8
  %111 = load ptr, ptr %11, align 8
  %112 = load i32, ptr %15, align 4
  %113 = load i32, ptr %16, align 4
  %114 = call ptr @tvb_bytes_to_str(ptr noundef %110, ptr noundef %111, i32 noundef %112, i32 noundef %113)
  %115 = call ptr (ptr, i32, ptr, i32, i32, ptr, ptr, ...) @proto_tree_add_bytes_format(ptr noundef %101, i32 noundef %102, ptr noundef %103, i32 noundef %104, i32 noundef %105, ptr noundef null, ptr noundef @.str.9, ptr noundef %106, i32 noundef %107, ptr noundef %114)
  br label %123

116:                                              ; preds = %86
  %117 = load ptr, ptr %9, align 8
  %118 = load i32, ptr %12, align 4
  %119 = load ptr, ptr %11, align 8
  %120 = load i32, ptr %15, align 4
  %121 = load i32, ptr %16, align 4
  %122 = call ptr (ptr, i32, ptr, i32, i32, ptr, ptr, ...) @proto_tree_add_bytes_format(ptr noundef %117, i32 noundef %118, ptr noundef %119, i32 noundef %120, i32 noundef %121, ptr noundef null, ptr noundef @.str.10)
  br label %123

123:                                              ; preds = %116, %100
  br label %134

124:                                              ; preds = %24
  %125 = load ptr, ptr %9, align 8
  %126 = load i32, ptr %12, align 4
  %127 = load ptr, ptr %11, align 8
  %128 = load i32, ptr %15, align 4
  %129 = load i32, ptr %16, align 4
  %130 = load i8, ptr %17, align 1
  %131 = zext i8 %130 to i32
  %132 = load i32, ptr %16, align 4
  %133 = call ptr (ptr, i32, ptr, i32, i32, ptr, ptr, ...) @proto_tree_add_bytes_format(ptr noundef %125, i32 noundef %126, ptr noundef %127, i32 noundef %128, i32 noundef %129, ptr noundef null, ptr noundef @.str.11, i32 noundef %131, i32 noundef %132)
  store i32 1, ptr %18, align 4
  br label %134

134:                                              ; preds = %124, %123, %85, %59
  %135 = load i32, ptr %18, align 4
  %136 = icmp ne i32 %135, 0
  br i1 %136, label %137, label %144

137:                                              ; preds = %134
  %138 = load ptr, ptr %9, align 8
  %139 = load ptr, ptr %10, align 8
  %140 = load ptr, ptr %14, align 8
  %141 = load ptr, ptr %11, align 8
  %142 = load i32, ptr %15, align 4
  %143 = call ptr @proto_tree_add_expert(ptr noundef %138, ptr noundef %139, ptr noundef %140, ptr noundef %141, i32 noundef %142, i32 noundef -1)
  br label %144

144:                                              ; preds = %137, %134
  store i32 0, ptr %20, align 4
  br label %145

145:                                              ; preds = %144, %23
  call void @llvm.lifetime.end.p0(i64 8, ptr %19) #3
  call void @llvm.lifetime.end.p0(i64 4, ptr %18) #3
  call void @llvm.lifetime.end.p0(i64 1, ptr %17) #3
  %146 = load i32, ptr %20, align 4
  switch i32 %146, label %148 [
    i32 0, label %147
    i32 1, label %147
  ]

147:                                              ; preds = %145, %145
  ret void

148:                                              ; preds = %145
  unreachable
}